; Function Attrs: nounwind uwtable
define ptr @l_Std_Time_Internal_Bounded_LE_byEmod(ptr noundef %0, ptr noundef %1, ptr noundef readnone captures(none) %2) local_unnamed_addr #1 {
  %4 = ptrtoint ptr %0 to i64
  %5 = and i64 %4, 1
  %.not.i = icmp eq i64 %5, 0
  br i1 %.not.i, label %.critedge.i, label %6, !prof !10

6:                                                ; preds = %3
  %7 = ptrtoint ptr %1 to i64
  %8 = and i64 %7, 1
  %.not21.i = icmp eq i64 %8, 0
  br i1 %.not21.i, label %.critedge.i, label %9, !prof !10

9:                                                ; preds = %6
  %10 = shl i64 %7, 31
  %11 = icmp ult i64 %10, 4294967296
  br i1 %11, label %lean_int_emod.exit, label %12

12:                                               ; preds = %9
  %13 = ashr i64 %10, 32
  %14 = shl i64 %4, 31
  %15 = ashr i64 %14, 32
  %16 = srem i64 %15, %13
  %17 = icmp slt i64 %16, 0
  %.p.i = tail call i64 @llvm.abs.i64(i64 %13, i1 true)
  %18 = select i1 %17, i64 %.p.i, i64 0
  %.0.i = add nsw i64 %18, %16
  %19 = add nsw i64 %.0.i, 2147483648
  %20 = icmp samesign ult i64 %19, 4294967296
  br i1 %20, label %21, label %26, !prof !9

21:                                               ; preds = %12
  %22 = shl nsw i64 %.0.i, 1
  %23 = and i64 %22, 8589934590
  %24 = or disjoint i64 %23, 1
  %25 = inttoptr i64 %24 to ptr
  br label %lean_int_emod.exit

26:                                               ; preds = %12
  %27 = tail call ptr @lean_big_int64_to_int(i64 noundef range(i64 -4611686016279904256, 4611686018427387905) %.0.i) #5
  br label %lean_int_emod.exit

.critedge.i:                                      ; preds = %6, %3
  %28 = tail call ptr @lean_int_big_emod(ptr noundef %0, ptr noundef %1) #5
  br label %lean_int_emod.exit

lean_int_emod.exit:                               ; preds = %9, %21, %26, %.critedge.i
  %.1.i = phi ptr [ %28, %.critedge.i ], [ %0, %9 ], [ %25, %21 ], [ %27, %26 ]
  ret ptr %.1.i
}